-----BEGIN PRIVATE KEY-----
MIIEvgIBADANBgkqhkiG9w0BAQEFAASCBKgwggSkAgEAAoIBAQCwGj2NfUnhudLm
tP72esZ8oeHClQwpszh2fuA7a0emtDVkL9Hj2OXbJUfguy/kvQl32XB1MVS+iZq6
9iqWCwHe1yFP72wGcszgE/vGYQ9aJBWNBKR7m5TV37tesTCD394+AhxWUjDyyvL1
mWIz4IBqlgYw0jxeC1EGVVtHkIFFwfe98PIE8igQpij76KuNz7QCUA8uQ23PlFgX
heFnSgobzQRruUM8rWST5q6FvfkUDM5hMbY1PRfYnJ6Gim+WWNHF22nvRB3NkmG6
XvxUwW0xXFxppqC3BKPL7d4krqdgIqKlyI1dwkss4R9H0Wa/6eQJ4hUnccq9uHl1
xlj+ANV3AgMBAAECggEAcGJOpd0vKT7NuS4JCIOR6DfnO6ai/HnDrtuJfmIYd+rJ
qAZcjGv/RLumA2VySyfYwwOhISk6S97FQEuZIegkaXIhcEH7TqI03UvjgdavVXdx
yW0NC1Vexp7hlKy/qWlVC32NWAlb85ZRNyuL4E+FpH/Zs453uAzAyKnwdtthpIH1
QjmmSNRfjVpZZdYK7Y4ITOEZvchakKuoHHl0t1H5CMXPH7dkkCX7/fdR2mca3mfn
VSuWdYyk5Hfzf6dvkVuobMLkC6Kpp5K6Ecw4o25uSxQkLXOH9AjjkA/P052yog71
biA8KtMwpDx5VrQyxRpy62Nd65S0iXPhE+nUgRNRAQKBgQDkPIeV9bkhagVZ2oJE
cRGA2lh058GrIyUIj1SFbxiCByTOopSs/kHnKiJKPf+SNtXjnfUebnw7QRAoE9Bh
WS6dygEccbOomcQGqVWOxc5521pMRJevqfW+D3PRBc9kpi4gdEQ4TeJoK2Hh8Jix
1ZGGVuN9KBBPg1wq6/PU4rBR8wKBgQDFhjeOlA3iNXQcGwmnh+0TEJnv4HJVa/S9
wZKZwuBXiZj7YhOFKDjhrHCouchCymTpNq7oqb7v4NKh+3lTbLExxxhKRIaIuf+C
NmjAgsMM1q2/C6Vu8rVv3doHBxbZWcYjzX3OPKJpbI6IPaz+mlmXDYuP4B+rOhz6
EkadTpWLbQKBgBD6O6+4/pNwuoMrkOMccgveshPIJYzgaWHQn53pXK5Xb7J7P4n6
w9Y5OSHCqN8sew6acmBYIZ+awGPqzWZgZupP23NNNesFvSItuHKNXkWMPpRLyejE
QMZpidjzkLDQ979sRqLVkFDlYTuYVRNtaozOq89kiooPoGyE7rdYQXtnAoGBALZi
ojYS22b+eIHjLVz2E6BA+gMWujvJ/Sih7p3v5Xqu4QVtoByZ8TvgH/6L3TBe9iKp
jYPkCRwx+gv7yiGQAWW3MuSQtbDWHem8F6l6lGPsbm4zcMQrdAEhVsqabyyuylgQ
zJN8RXMW+90tJenJ1+O0bCOjjVprxIncCjwCbe9ZAoGBAK8ghpBTOe8Jw0uIkLaL
4XJVc+SqjLsOVvA3Zixw13u+910M2atQmu9OCL3DetbxlYHu1KoqGqAJdcSbbo3O
8zJXfsslPlOhya6/5WpuZ+GNYk8MzguCKfqY8GkM6jxSpA7jJAdmjcNIhrfqchPp
dKffjqPZPXAE5I6YFQUzifke
-----END PRIVATE KEY-----
Certificate:
    Data:
        Version: 1 (0x0)
        Serial Number:
            19:fb:f4:04:67:ac:20:77:d3:51:ee:8a:c1:6c:12:ab:85:be:be:9a
        Signature Algorithm: sha256WithRSAEncryption
        Issuer: C=XY, O=Dask CA, CN=our-ca-server
        Validity
            Not Before: Mar  6 18:14:02 2022 GMT
            Not After : Oct 29 18:14:02 3007 GMT
        Subject: C=XY, L=Dask-distributed, O=Dask, CN=localhost
        Subject Public Key Info:
            Public Key Algorithm: rsaEncryption
                RSA Public-Key: (2048 bit)
                Modulus:
                    00:b0:1a:3d:8d:7d:49:e1:b9:d2:e6:b4:fe:f6:7a:
                    c6:7c:a1:e1:c2:95:0c:29:b3:38:76:7e:e0:3b:6b:
                    47:a6:b4:35:64:2f:d1:e3:d8:e5:db:25:47:e0:bb:
                    2f:e4:bd:09:77:d9:70:75:31:54:be:89:9a:ba:f6:
                    2a:96:0b:01:de:d7:21:4f:ef:6c:06:72:cc:e0:13:
                    fb:c6:61:0f:5a:24:15:8d:04:a4:7b:9b:94:d5:df:
                    bb:5e:b1:30:83:df:de:3e:02:1c:56:52:30:f2:ca:
                    f2:f5:99:62:33:e0:80:6a:96:06:30:d2:3c:5e:0b:
                    51:06:55:5b:47:90:81:45:c1:f7:bd:f0:f2:04:f2:
                    28:10:a6:28:fb:e8:ab:8d:cf:b4:02:50:0f:2e:43:
                    6d:cf:94:58:17:85:e1:67:4a:0a:1b:cd:04:6b:b9:
                    43:3c:ad:64:93:e6:ae:85:bd:f9:14:0c:ce:61:31:
                    b6:35:3d:17:d8:9c:9e:86:8a:6f:96:58:d1:c5:db:
                    69:ef:44:1d:cd:92:61:ba:5e:fc:54:c1:6d:31:5c:
                    5c:69:a6:a0:b7:04:a3:cb:ed:de:24:ae:a7:60:22:
                    a2:a5:c8:8d:5d:c2:4b:2c:e1:1f:47:d1:66:bf:e9:
                    e4:09:e2:15:27:71:ca:bd:b8:79:75:c6:58:fe:00:
                    d5:77
                Exponent: 65537 (0x10001)
    Signature Algorithm: sha256WithRSAEncryption
         71:60:0b:9d:cd:22:c7:bb:f3:51:6b:83:63:1d:d7:b0:d7:82:
         7d:b9:ae:01:f5:48:23:0a:56:80:d5:a1:4c:64:d0:49:d8:df:
         6f:ae:05:ea:72:8d:3c:bb:7e:11:f0:c6:6c:99:5f:61:ee:9e:
         89:0a:ad:b6:74:cb:b2:a2:94:ca:ab:ed:2e:1b:82:2f:01:4c:
         1c:19:67:00:ec:6a:ba:64:c1:6d:33:23:db:f4:0e:d7:ad:43:
         aa:22:7d:3f:b6:6f:e7:82:75:15:4b:44:49:42:a2:99:4d:5f:
         5a:46:64:2b:eb:6d:00:56:eb:a0:b1:04:ba:35:22:b4:22:21:
         60:f9:51:97:71:2e:40:61:79:e0:35:28:46:8c:bc:1b:ed:c2:
         28:6c:2f:de:95:80:70:0e:16:c1:bb:86:41:9f:d5:da:a2:2a:
         b3:bb:b6:2a:c4:2d:de:f6:58:d5:2f:89:3f:ed:80:59:cd:4b:
         40:a5:da:14:9f:77:97:70:23:3a:54:78:ea:e8:be:65:a2:c0:
         18:de:28:c6:b4:c2:7a:bc:21:b8:48:ba:7f:e4:46:1b:98:57:
         58:04:11:8d:0f:e4:3e:b7:f4:05:15:e7:e6:7d:b4:51:c8:9c:
         b5:a3:52:9e:ab:49:88:78:27:fa:d9:62:88:8f:68:2f:7b:48:
         39:24:c8:00
-----BEGIN CERTIFICATE-----
MIIDCzCCAfMCFBn79ARnrCB301HuisFsEquFvr6aMA0GCSqGSIb3DQEBCwUAMDcx
CzAJBgNVBAYTAlhZMRAwDgYDVQQKDAdEYXNrIENBMRYwFAYDVQQDDA1vdXItY2Et
c2VydmVyMCAXDTIyMDMwNjE4MTQwMloYDzMwMDcxMDI5MTgxNDAyWjBLMQswCQYD
VQQGEwJYWTEZMBcGA1UEBwwQRGFzay1kaXN0cmlidXRlZDENMAsGA1UECgwERGFz
azESMBAGA1UEAwwJbG9jYWxob3N0MIIBIjANBgkqhkiG9w0BAQEFAAOCAQ8AMIIB
CgKCAQEAsBo9jX1J4bnS5rT+9nrGfKHhwpUMKbM4dn7gO2tHprQ1ZC/R49jl2yVH
4Lsv5L0Jd9lwdTFUvomauvYqlgsB3tchT+9sBnLM4BP7xmEPWiQVjQSke5uU1d+7
XrEwg9/ePgIcVlIw8sry9ZliM+CAapYGMNI8XgtRBlVbR5CBRcH3vfDyBPIoEKYo
++irjc+0AlAPLkNtz5RYF4XhZ0oKG80Ea7lDPK1kk+auhb35FAzOYTG2NT0X2Jye
hopvlljRxdtp70QdzZJhul78VMFtMVxcaaagtwSjy+3eJK6nYCKipciNXcJLLOEf
R9Fmv+nkCeIVJ3HKvbh5dcZY/gDVdwIDAQABMA0GCSqGSIb3DQEBCwUAA4IBAQBx
YAudzSLHu/NRa4NjHdew14J9ua4B9UgjClaA1aFMZNBJ2N9vrgXqco08u34R8MZs
mV9h7p6JCq22dMuyopTKq+0uG4IvAUwcGWcA7Gq6ZMFtMyPb9A7XrUOqIn0/tm/n
gnUVS0RJQqKZTV9aRmQr620AVuugsQS6NSK0IiFg+VGXcS5AYXngNShGjLwb7cIo
bC/elYBwDhbBu4ZBn9Xaoiqzu7YqxC3e9ljVL4k/7YBZzUtApdoUn3eXcCM6VHjq
6L5losAY3ijGtMJ6vCG4SLp/5EYbmFdYBBGND+Q+t/QFFefmfbRRyJy1o1Keq0mI
eCf62WKIj2gve0g5JMgA
-----END CERTIFICATE-----
